target datalayout = "e-m:e-p270:32:32-p271:32:32-p272:64:64-i64:64-i128:128-f80:128-n8:16:32:64-S128"
target triple = "x86_64-pc-linux-gnu"

%struct._zval_struct = type { %union._zend_value, %union.anon, %union.anon.2 }
%union._zend_value = type { i64 }
%union.anon = type { i32 }
%union.anon.2 = type { i32 }
%struct._zend_refcounted_h = type { i32, %union.anon.3 }
%union.anon.3 = type { i32 }
%struct._zend_refcounted = type { %struct._zend_refcounted_h }
%struct.anon.0 = type { i8, i8, %union.anon.1 }
%union.anon.1 = type { i16 }

; Function Attrs: alwaysinline nounwind uwtable
define internal zeroext i1 @zend_parse_arg_str_ex(ptr noundef %0, ptr noundef %1, i1 noundef zeroext %2, i32 noundef %3, i1 noundef zeroext %4) #7 {
  %6 = alloca i1, align 1
  %7 = alloca ptr, align 8
  %8 = alloca ptr, align 8
  %9 = alloca i8, align 1
  %10 = alloca i32, align 4
  %11 = alloca i8, align 1
  store ptr %0, ptr %7, align 8, !tbaa !15
  store ptr %1, ptr %8, align 8, !tbaa !29
  %12 = zext i1 %2 to i8
  store i8 %12, ptr %9, align 1, !tbaa !19
  store i32 %3, ptr %10, align 4, !tbaa !17
  %13 = zext i1 %4 to i8
  store i8 %13, ptr %11, align 1, !tbaa !19
  %14 = load ptr, ptr %7, align 8, !tbaa !15
  %15 = call zeroext i8 @zval_get_type(ptr noundef %14)
  %16 = zext i8 %15 to i32
  %17 = icmp eq i32 %16, 6
  %18 = xor i1 %17, true
  %19 = xor i1 %18, true
  %20 = zext i1 %19 to i32
  %21 = sext i32 %20 to i64
  %22 = call i64 @llvm.expect.i64(i64 %21, i64 1)
  %23 = icmp ne i64 %22, 0
  br i1 %23, label %24, label %29

24:                                               ; preds = %5
  %25 = load ptr, ptr %7, align 8, !tbaa !15
  %26 = getelementptr inbounds nuw %struct._zval_struct, ptr %25, i32 0, i32 0
  %27 = load ptr, ptr %26, align 8, !tbaa !12
  %28 = load ptr, ptr %8, align 8, !tbaa !29
  store ptr %27, ptr %28, align 8, !tbaa !23
  br label %53

29:                                               ; preds = %5
  %30 = load i8, ptr %9, align 1, !tbaa !19, !range !21, !noundef !22
  %31 = trunc i8 %30 to i1
  br i1 %31, label %32, label %39

32:                                               ; preds = %29
  %33 = load ptr, ptr %7, align 8, !tbaa !15
  %34 = call zeroext i8 @zval_get_type(ptr noundef %33)
  %35 = zext i8 %34 to i32
  %36 = icmp eq i32 %35, 1
  br i1 %36, label %37, label %39

37:                                               ; preds = %32
  %38 = load ptr, ptr %8, align 8, !tbaa !29
  store ptr null, ptr %38, align 8, !tbaa !23
  br label %52

39:                                               ; preds = %32, %29
  %40 = load i8, ptr %11, align 1, !tbaa !19, !range !21, !noundef !22
  %41 = trunc i8 %40 to i1
  br i1 %41, label %42, label %47

42:                                               ; preds = %39
  %43 = load ptr, ptr %7, align 8, !tbaa !15
  %44 = load ptr, ptr %8, align 8, !tbaa !29
  %45 = load i32, ptr %10, align 4, !tbaa !17
  %46 = call zeroext i1 @zend_flf_parse_arg_str_slow(ptr noundef %43, ptr noundef %44, i32 noundef %45)
  store i1 %46, ptr %6, align 1
  br label %54

47:                                               ; preds = %39
  %48 = load ptr, ptr %7, align 8, !tbaa !15
  %49 = load ptr, ptr %8, align 8, !tbaa !29
  %50 = load i32, ptr %10, align 4, !tbaa !17
  %51 = call zeroext i1 @zend_parse_arg_str_slow(ptr noundef %48, ptr noundef %49, i32 noundef %50)
  store i1 %51, ptr %6, align 1
  br label %54

52:                                               ; preds = %37
  br label %53

53:                                               ; preds = %52, %24
  store i1 true, ptr %6, align 1
  br label %54

54:                                               ; preds = %53, %47, %42
  %55 = load i1, ptr %6, align 1
  ret i1 %55
}

; Function Attrs: alwaysinline nounwind uwtable
define internal i32 @zend_gc_addref(ptr noundef %0) #7 {
  %2 = alloca ptr, align 8
  store ptr %0, ptr %2, align 8, !tbaa !38
  br label %3

3:                                                ; preds = %1
  br label %4

4:                                                ; preds = %3
  %5 = load ptr, ptr %2, align 8, !tbaa !38
  %6 = getelementptr inbounds nuw %struct._zend_refcounted_h, ptr %5, i32 0, i32 0
  %7 = load i32, ptr %6, align 4, !tbaa !40
  %8 = add i32 %7, 1
  store i32 %8, ptr %6, align 4, !tbaa !40
  ret i32 %8
}

; Function Attrs: alwaysinline nounwind uwtable
define internal zeroext i8 @zval_get_type(ptr noundef %0) #7 {
  %2 = alloca ptr, align 8
  store ptr %0, ptr %2, align 8, !tbaa !15
  %3 = load ptr, ptr %2, align 8, !tbaa !15
  %4 = getelementptr inbounds nuw %struct._zval_struct, ptr %3, i32 0, i32 1
  %5 = getelementptr inbounds nuw %struct.anon.0, ptr %4, i32 0, i32 0
  %6 = load i8, ptr %5, align 8, !tbaa !12
  ret i8 %6
}

; Function Attrs: nounwind uwtable
define hidden void @zflf_strpos_2(ptr noundef %0, ptr noundef %1, ptr noundef %2) #0 {
  %4 = alloca ptr, align 8
  %5 = alloca ptr, align 8
  %6 = alloca ptr, align 8
  %7 = alloca %struct._zval_struct, align 8
  %8 = alloca %struct._zval_struct, align 8
  %9 = alloca ptr, align 8
  %10 = alloca ptr, align 8
  %11 = alloca ptr, align 8
  %12 = alloca ptr, align 8
  %13 = alloca ptr, align 8
  %14 = alloca i32, align 4
  %15 = alloca ptr, align 8
  %16 = alloca ptr, align 8
  %17 = alloca ptr, align 8
  %18 = alloca i32, align 4
  store ptr %0, ptr %4, align 8, !tbaa !15
  store ptr %1, ptr %5, align 8, !tbaa !15
  store ptr %2, ptr %6, align 8, !tbaa !15
  call void @llvm.lifetime.start.p0(i64 16, ptr %7) #22
  call void @llvm.lifetime.start.p0(i64 16, ptr %8) #22
  call void @llvm.lifetime.start.p0(i64 8, ptr %9) #22
  call void @llvm.lifetime.start.p0(i64 8, ptr %10) #22
  %19 = load ptr, ptr %5, align 8, !tbaa !15
  %20 = call zeroext i8 @zval_get_type(ptr noundef %19)
  %21 = zext i8 %20 to i32
  %22 = icmp eq i32 %21, 6
  br i1 %22, label %23, label %27

23:                                               ; preds = %3
  %24 = load ptr, ptr %5, align 8, !tbaa !15
  %25 = getelementptr inbounds nuw %struct._zval_struct, ptr %24, i32 0, i32 0
  %26 = load ptr, ptr %25, align 8, !tbaa !12
  store ptr %26, ptr %9, align 8, !tbaa !23
  br label %60

27:                                               ; preds = %3
  br label %28

28:                                               ; preds = %27
  call void @llvm.lifetime.start.p0(i64 8, ptr %11) #22
  store ptr %7, ptr %11, align 8, !tbaa !15
  call void @llvm.lifetime.start.p0(i64 8, ptr %12) #22
  %29 = load ptr, ptr %5, align 8, !tbaa !15
  store ptr %29, ptr %12, align 8, !tbaa !15
  call void @llvm.lifetime.start.p0(i64 8, ptr %13) #22
  %30 = load ptr, ptr %12, align 8, !tbaa !15
  %31 = getelementptr inbounds nuw %struct._zval_struct, ptr %30, i32 0, i32 0
  %32 = load ptr, ptr %31, align 8, !tbaa !12
  store ptr %32, ptr %13, align 8, !tbaa !36
  call void @llvm.lifetime.start.p0(i64 4, ptr %14) #22
  %33 = load ptr, ptr %12, align 8, !tbaa !15
  %34 = getelementptr inbounds nuw %struct._zval_struct, ptr %33, i32 0, i32 1
  %35 = load i32, ptr %34, align 8, !tbaa !12
  store i32 %35, ptr %14, align 4, !tbaa !17
  br label %36

36:                                               ; preds = %28
  %37 = load ptr, ptr %13, align 8, !tbaa !36
  %38 = load ptr, ptr %11, align 8, !tbaa !15
  %39 = getelementptr inbounds nuw %struct._zval_struct, ptr %38, i32 0, i32 0
  store ptr %37, ptr %39, align 8, !tbaa !12
  %40 = load i32, ptr %14, align 4, !tbaa !17
  %41 = load ptr, ptr %11, align 8, !tbaa !15
  %42 = getelementptr inbounds nuw %struct._zval_struct, ptr %41, i32 0, i32 1
  store i32 %40, ptr %42, align 8, !tbaa !12
  br label %43

43:                                               ; preds = %36
  br label %44

44:                                               ; preds = %43
  %45 = load i32, ptr %14, align 4, !tbaa !17
  %46 = and i32 %45, 65280
  %47 = icmp ne i32 %46, 0
  br i1 %47, label %48, label %52

48:                                               ; preds = %44
  %49 = load ptr, ptr %13, align 8, !tbaa !36
  %50 = getelementptr inbounds nuw %struct._zend_refcounted, ptr %49, i32 0, i32 0
  %51 = call i32 @zend_gc_addref(ptr noundef %50)
  br label %52

52:                                               ; preds = %48, %44
  call void @llvm.lifetime.end.p0(i64 4, ptr %14) #22
  call void @llvm.lifetime.end.p0(i64 8, ptr %13) #22
  call void @llvm.lifetime.end.p0(i64 8, ptr %12) #22
  call void @llvm.lifetime.end.p0(i64 8, ptr %11) #22
  br label %53

53:                                               ; preds = %52
  br label %54

54:                                               ; preds = %53
  store ptr %7, ptr %5, align 8, !tbaa !15
  %55 = load ptr, ptr %5, align 8, !tbaa !15
  %56 = call zeroext i1 @zend_parse_arg_str_ex(ptr noundef %55, ptr noundef %9, i1 noundef zeroext false, i32 noundef 1, i1 noundef zeroext true)
  br i1 %56, label %59, label %57

57:                                               ; preds = %54
  %58 = load ptr, ptr %5, align 8, !tbaa !15
  call void @zend_wrong_parameter_type_error(i32 noundef 1, i32 noundef 4, ptr noundef %58)
  br label %106

59:                                               ; preds = %54
  br label %60

60:                                               ; preds = %59, %23
  %61 = load ptr, ptr %6, align 8, !tbaa !15
  %62 = call zeroext i8 @zval_get_type(ptr noundef %61)
  %63 = zext i8 %62 to i32
  %64 = icmp eq i32 %63, 6
  br i1 %64, label %65, label %69

65:                                               ; preds = %60
  %66 = load ptr, ptr %6, align 8, !tbaa !15
  %67 = getelementptr inbounds nuw %struct._zval_struct, ptr %66, i32 0, i32 0
  %68 = load ptr, ptr %67, align 8, !tbaa !12
  store ptr %68, ptr %10, align 8, !tbaa !23
  br label %102

69:                                               ; preds = %60
  br label %70

70:                                               ; preds = %69
  call void @llvm.lifetime.start.p0(i64 8, ptr %15) #22
  store ptr %8, ptr %15, align 8, !tbaa !15
  call void @llvm.lifetime.start.p0(i64 8, ptr %16) #22
  %71 = load ptr, ptr %6, align 8, !tbaa !15
  store ptr %71, ptr %16, align 8, !tbaa !15
  call void @llvm.lifetime.start.p0(i64 8, ptr %17) #22
  %72 = load ptr, ptr %16, align 8, !tbaa !15
  %73 = getelementptr inbounds nuw %struct._zval_struct, ptr %72, i32 0, i32 0
  %74 = load ptr, ptr %73, align 8, !tbaa !12
  store ptr %74, ptr %17, align 8, !tbaa !36
  call void @llvm.lifetime.start.p0(i64 4, ptr %18) #22
  %75 = load ptr, ptr %16, align 8, !tbaa !15
  %76 = getelementptr inbounds nuw %struct._zval_struct, ptr %75, i32 0, i32 1
  %77 = load i32, ptr %76, align 8, !tbaa !12
  store i32 %77, ptr %18, align 4, !tbaa !17
  br label %78

78:                                               ; preds = %70
  %79 = load ptr, ptr %17, align 8, !tbaa !36
  %80 = load ptr, ptr %15, align 8, !tbaa !15
  %81 = getelementptr inbounds nuw %struct._zval_struct, ptr %80, i32 0, i32 0
  store ptr %79, ptr %81, align 8, !tbaa !12
  %82 = load i32, ptr %18, align 4, !tbaa !17
  %83 = load ptr, ptr %15, align 8, !tbaa !15
  %84 = getelementptr inbounds nuw %struct._zval_struct, ptr %83, i32 0, i32 1
  store i32 %82, ptr %84, align 8, !tbaa !12
  br label %85

85:                                               ; preds = %78
  br label %86

86:                                               ; preds = %85
  %87 = load i32, ptr %18, align 4, !tbaa !17
  %88 = and i32 %87, 65280
  %89 = icmp ne i32 %88, 0
  br i1 %89, label %90, label %94

90:                                               ; preds = %86
  %91 = load ptr, ptr %17, align 8, !tbaa !36
  %92 = getelementptr inbounds nuw %struct._zend_refcounted, ptr %91, i32 0, i32 0
  %93 = call i32 @zend_gc_addref(ptr noundef %92)
  br label %94

94:                                               ; preds = %90, %86
  call void @llvm.lifetime.end.p0(i64 4, ptr %18) #22
  call void @llvm.lifetime.end.p0(i64 8, ptr %17) #22
  call void @llvm.lifetime.end.p0(i64 8, ptr %16) #22
  call void @llvm.lifetime.end.p0(i64 8, ptr %15) #22
  br label %95

95:                                               ; preds = %94
  br label %96

96:                                               ; preds = %95
  store ptr %8, ptr %6, align 8, !tbaa !15
  %97 = load ptr, ptr %6, align 8, !tbaa !15
  %98 = call zeroext i1 @zend_parse_arg_str_ex(ptr noundef %97, ptr noundef %10, i1 noundef zeroext false, i32 noundef 2, i1 noundef zeroext true)
  br i1 %98, label %101, label %99

99:                                               ; preds = %96
  %100 = load ptr, ptr %6, align 8, !tbaa !15
  call void @zend_wrong_parameter_type_error(i32 noundef 2, i32 noundef 4, ptr noundef %100)
  br label %106

101:                                              ; preds = %96
  br label %102

102:                                              ; preds = %101, %65
  %103 = load ptr, ptr %4, align 8, !tbaa !15
  %104 = load ptr, ptr %9, align 8, !tbaa !23
  %105 = load ptr, ptr %10, align 8, !tbaa !23
  call void @_zend_strpos(ptr noundef %103, ptr noundef %104, ptr noundef %105, i64 noundef 0)
  br label %106

106:                                              ; preds = %102, %99, %57
  %107 = load ptr, ptr %5, align 8, !tbaa !15
  %108 = icmp eq ptr %107, %7
  %109 = xor i1 %108, true
  %110 = xor i1 %109, true
  %111 = zext i1 %110 to i32
  %112 = sext i32 %111 to i64
  %113 = call i64 @llvm.expect.i64(i64 %112, i64 0)
  %114 = icmp ne i64 %113, 0
  br i1 %114, label %115, label %117

115:                                              ; preds = %106
  %116 = load ptr, ptr %5, align 8, !tbaa !15
  call void @zval_ptr_dtor(ptr noundef %116)
  br label %117

117:                                              ; preds = %115, %106
  %118 = load ptr, ptr %6, align 8, !tbaa !15
  %119 = icmp eq ptr %118, %8
  %120 = xor i1 %119, true
  %121 = xor i1 %120, true
  %122 = zext i1 %121 to i32
  %123 = sext i32 %122 to i64
  %124 = call i64 @llvm.expect.i64(i64 %123, i64 0)
  %125 = icmp ne i64 %124, 0
  br i1 %125, label %126, label %128

126:                                              ; preds = %117
  %127 = load ptr, ptr %6, align 8, !tbaa !15
  call void @zval_ptr_dtor(ptr noundef %127)
  br label %128

128:                                              ; preds = %126, %117
  call void @llvm.lifetime.end.p0(i64 8, ptr %10) #22
  call void @llvm.lifetime.end.p0(i64 8, ptr %9) #22
  call void @llvm.lifetime.end.p0(i64 16, ptr %8) #22
  call void @llvm.lifetime.end.p0(i64 16, ptr %7) #22
  ret void
}