; Function Attrs: nounwind uwtable
define hidden void @zflf_strpos_2(ptr noundef writeonly captures(none) %0, ptr noundef %1, ptr noundef %2) local_unnamed_addr #0 {
  %4 = alloca %struct._zval_struct, align 8
  %5 = alloca %struct._zval_struct, align 8
  %6 = alloca ptr, align 8
  %7 = alloca ptr, align 8
  call void @llvm.lifetime.start.p0(i64 16, ptr nonnull %4) #28
  call void @llvm.lifetime.start.p0(i64 16, ptr nonnull %5) #28
  call void @llvm.lifetime.start.p0(i64 8, ptr nonnull %6) #28
  call void @llvm.lifetime.start.p0(i64 8, ptr nonnull %7) #28
  %8 = getelementptr inbounds nuw i8, ptr %1, i64 8
  %9 = load i8, ptr %8, align 8, !tbaa !10
  %10 = icmp eq i8 %9, 6
  %11 = load ptr, ptr %1, align 8, !tbaa !10
  br i1 %10, label %.sink.split, label %12

12:                                               ; preds = %3
  %13 = load i32, ptr %8, align 8, !tbaa !10
  store ptr %11, ptr %4, align 8, !tbaa !10
  %14 = getelementptr inbounds nuw i8, ptr %4, i64 8
  store i32 %13, ptr %14, align 8, !tbaa !10
  %15 = and i32 %13, 65280
  %.not = icmp eq i32 %15, 0
  %16 = trunc i32 %13 to i8
  br i1 %.not, label %20, label %17

17:                                               ; preds = %12
  %18 = load i32, ptr %11, align 4, !tbaa !21
  %19 = add i32 %18, 1
  store i32 %19, ptr %11, align 4, !tbaa !21
  %.pre = load i8, ptr %14, align 8, !tbaa !10
  br label %20

20:                                               ; preds = %17, %12
  %21 = phi i8 [ %.pre, %17 ], [ %16, %12 ]
  %22 = icmp eq i8 %21, 6
  br i1 %22, label %zend_parse_arg_str_ex.exit34.thread, label %zend_parse_arg_str_ex.exit34, !prof !12

zend_parse_arg_str_ex.exit34.thread:              ; preds = %20
  %23 = load ptr, ptr %4, align 8, !tbaa !10
  br label %.sink.split

zend_parse_arg_str_ex.exit34:                     ; preds = %20
  %24 = call zeroext i1 @zend_flf_parse_arg_str_slow(ptr noundef nonnull %4, ptr noundef nonnull %6, i32 noundef 1) #28
  br i1 %24, label %25, label %.thread

.thread:                                          ; preds = %zend_parse_arg_str_ex.exit34
  call void @zend_wrong_parameter_type_error(i32 noundef 1, i32 noundef 4, ptr noundef nonnull %4) #28
  br label %50

.sink.split:                                      ; preds = %3, %zend_parse_arg_str_ex.exit34.thread
  %.sink = phi ptr [ %23, %zend_parse_arg_str_ex.exit34.thread ], [ %11, %3 ]
  %.0.ph = phi ptr [ %4, %zend_parse_arg_str_ex.exit34.thread ], [ %1, %3 ]
  store ptr %.sink, ptr %6, align 8, !tbaa !13
  br label %25

25:                                               ; preds = %.sink.split, %zend_parse_arg_str_ex.exit34
  %.0 = phi ptr [ %4, %zend_parse_arg_str_ex.exit34 ], [ %.0.ph, %.sink.split ]
  %26 = getelementptr inbounds nuw i8, ptr %2, i64 8
  %27 = load i8, ptr %26, align 8, !tbaa !10
  %28 = icmp eq i8 %27, 6
  %29 = load ptr, ptr %2, align 8, !tbaa !10
  br i1 %28, label %30, label %31

30:                                               ; preds = %25
  store ptr %29, ptr %7, align 8, !tbaa !13
  br label %45

31:                                               ; preds = %25
  %32 = load i32, ptr %26, align 8, !tbaa !10
  store ptr %29, ptr %5, align 8, !tbaa !10
  %33 = getelementptr inbounds nuw i8, ptr %5, i64 8
  store i32 %32, ptr %33, align 8, !tbaa !10
  %34 = and i32 %32, 65280
  %.not32 = icmp eq i32 %34, 0
  %35 = trunc i32 %32 to i8
  br i1 %.not32, label %39, label %36

36:                                               ; preds = %31
  %37 = load i32, ptr %29, align 4, !tbaa !21
  %38 = add i32 %37, 1
  store i32 %38, ptr %29, align 4, !tbaa !21
  %.pre42 = load i8, ptr %33, align 8, !tbaa !10
  br label %39

39:                                               ; preds = %36, %31
  %40 = phi i8 [ %.pre42, %36 ], [ %35, %31 ]
  %41 = icmp eq i8 %40, 6
  br i1 %41, label %zend_parse_arg_str_ex.exit.thread, label %zend_parse_arg_str_ex.exit, !prof !12

zend_parse_arg_str_ex.exit.thread:                ; preds = %39
  %42 = load ptr, ptr %5, align 8, !tbaa !10
  store ptr %42, ptr %7, align 8, !tbaa !13
  br label %45

zend_parse_arg_str_ex.exit:                       ; preds = %39
  %43 = call zeroext i1 @zend_flf_parse_arg_str_slow(ptr noundef nonnull %5, ptr noundef nonnull %7, i32 noundef 2) #28
  br i1 %43, label %zend_parse_arg_str_ex.exit._crit_edge, label %44

zend_parse_arg_str_ex.exit._crit_edge:            ; preds = %zend_parse_arg_str_ex.exit
  %.pre43 = load ptr, ptr %7, align 8, !tbaa !13
  br label %45

44:                                               ; preds = %zend_parse_arg_str_ex.exit
  call void @zend_wrong_parameter_type_error(i32 noundef 2, i32 noundef 4, ptr noundef nonnull %5) #28
  br label %48

45:                                               ; preds = %zend_parse_arg_str_ex.exit._crit_edge, %zend_parse_arg_str_ex.exit.thread, %30
  %46 = phi ptr [ %29, %30 ], [ %.pre43, %zend_parse_arg_str_ex.exit._crit_edge ], [ %42, %zend_parse_arg_str_ex.exit.thread ]
  %.131 = phi ptr [ %2, %30 ], [ %5, %zend_parse_arg_str_ex.exit._crit_edge ], [ %5, %zend_parse_arg_str_ex.exit.thread ]
  %47 = load ptr, ptr %6, align 8, !tbaa !13
  call fastcc void @_zend_strpos(ptr noundef %0, ptr noundef %47, ptr noundef %46, i64 noundef 0)
  br label %48

48:                                               ; preds = %45, %44
  %.030 = phi ptr [ %.131, %45 ], [ %5, %44 ]
  %49 = icmp eq ptr %.0, %4
  br i1 %49, label %50, label %51, !prof !15

50:                                               ; preds = %.thread, %48
  %.141 = phi ptr [ %4, %.thread ], [ %.0, %48 ]
  %.03040 = phi ptr [ %2, %.thread ], [ %.030, %48 ]
  call void @zval_ptr_dtor(ptr noundef nonnull %.141) #28
  br label %51

51:                                               ; preds = %50, %48
  %.03039 = phi ptr [ %.03040, %50 ], [ %.030, %48 ]
  %52 = icmp eq ptr %.03039, %5
  br i1 %52, label %53, label %54, !prof !23

53:                                               ; preds = %51
  call void @zval_ptr_dtor(ptr noundef %.03039) #28
  br label %54

54:                                               ; preds = %53, %51
  call void @llvm.lifetime.end.p0(i64 8, ptr nonnull %7) #28
  call void @llvm.lifetime.end.p0(i64 8, ptr nonnull %6) #28
  call void @llvm.lifetime.end.p0(i64 16, ptr nonnull %5) #28
  call void @llvm.lifetime.end.p0(i64 16, ptr nonnull %4) #28
  ret void
}